target datalayout = "e-m:e-p270:32:32-p271:32:32-p272:64:64-i64:64-i128:128-f80:128-n8:16:32:64-S128"
target triple = "x86_64-pc-linux-gnu"

%"class.absl::log_internal::detect_specialization::StringifySink" = type { ptr }

; Function Attrs: mustprogress uwtable
define dso_local void @_ZN4absl12log_internal21detect_specialization13StringifySink6AppendEmc(ptr noundef nonnull align 8 dereferenceable(8) %0, i64 noundef %1, i8 noundef signext %2) #4 align 2 {
  %4 = alloca ptr, align 8
  %5 = alloca i64, align 8
  %6 = alloca i8, align 1
  %7 = alloca i64, align 8
  store ptr %0, ptr %4, align 8, !tbaa !49
  store i64 %1, ptr %5, align 8, !tbaa !19
  store i8 %2, ptr %6, align 1, !tbaa !31
  %8 = load ptr, ptr %4, align 8
  call void @llvm.lifetime.start.p0(i64 8, ptr %7) #15
  store i64 0, ptr %7, align 8, !tbaa !19
  br label %9

9:                                                ; preds = %19, %3
  %10 = load i64, ptr %7, align 8, !tbaa !19
  %11 = load i64, ptr %5, align 8, !tbaa !19
  %12 = icmp ult i64 %10, %11
  br i1 %12, label %14, label %13

13:                                               ; preds = %9
  call void @llvm.lifetime.end.p0(i64 8, ptr %7) #15
  br label %22

14:                                               ; preds = %9
  %15 = getelementptr inbounds nuw %"class.absl::log_internal::detect_specialization::StringifySink", ptr %8, i32 0, i32 0
  %16 = load ptr, ptr %15, align 8, !tbaa !51
  %17 = load i8, ptr %6, align 1, !tbaa !31
  %18 = call noundef nonnull align 8 dereferenceable(8) ptr @_ZNSo3putEc(ptr noundef nonnull align 8 dereferenceable(8) %16, i8 noundef signext %17)
  br label %19

19:                                               ; preds = %14
  %20 = load i64, ptr %7, align 8, !tbaa !19
  %21 = add i64 %20, 1
  store i64 %21, ptr %7, align 8, !tbaa !19
  br label %9, !llvm.loop !53

22:                                               ; preds = %13
  ret void
}