; Function Attrs: mustprogress uwtable
define dso_local void @_ZN4absl12log_internal21detect_specialization13StringifySink6AppendEmc(ptr noundef nonnull readonly align 8 captures(none) dereferenceable(8) %0, i64 noundef %1, i8 noundef signext %2) local_unnamed_addr #2 align 2 {
  %.not = icmp eq i64 %1, 0
  br i1 %.not, label %._crit_edge, label %.lr.ph

._crit_edge:                                      ; preds = %.lr.ph, %3
  ret void

.lr.ph:                                           ; preds = %3, %.lr.ph
  %.04 = phi i64 [ %6, %.lr.ph ], [ 0, %3 ]
  %4 = load ptr, ptr %0, align 8, !tbaa !54
  %5 = tail call noundef nonnull align 8 dereferenceable(8) ptr @_ZNSo3putEc(ptr noundef nonnull align 8 dereferenceable(8) %4, i8 noundef signext %2)
  %6 = add nuw i64 %.04, 1
  %exitcond.not = icmp eq i64 %6, %1
  br i1 %exitcond.not, label %._crit_edge, label %.lr.ph, !llvm.loop !56
}